(lp0
(dp1
S'about'
p2
S''
p3
sS'uri'
p4
S'http://symazz.info/'
p5
sS'rel'
p6
I10
sS'name'
p7
S'Symazz'
p8
sa(dp9
g2
g3
sg4
S'http://arturaz.net/blog/'
p10
sg6
I66
sg7
S'Art\xc5\xabras \xc5\xa0lajus'
p11
sa(dp12
g2
g3
sg4
S'http://crimblog.xz.lt/'
p13
sg6
I10
sg7
S'Criminal'
p14
sa(dp15
g2
g3
sg4
S'http://laisvai.net/tadas'
p16
sg6
I10
sg7
S'Tadas'
p17
sa(dp18
g2
g3
sg4
S'http://blog.bassline.lt/'
p19
sg6
I10
sg7
S'sliekas_kanibalas'
p20
sa.